; Function Attrs: nounwind uwtable
define dso_local void @luaL_addstring(ptr noundef %0, ptr noundef readonly captures(none) %1) local_unnamed_addr #0 {
  %3 = tail call i64 @strlen(ptr noundef nonnull dereferenceable(1) %1) #18
  %.not6.i = icmp eq i64 %3, 0
  br i1 %.not6.i, label %luaL_addlstring.exit, label %.lr.ph.i

.lr.ph.i:                                         ; preds = %2
  %4 = getelementptr inbounds nuw i8, ptr %0, i64 8216
  br label %5

5:                                                ; preds = %11, %.lr.ph.i
  %.in.i = phi i64 [ %3, %.lr.ph.i ], [ %6, %11 ]
  %.057.i = phi ptr [ %1, %.lr.ph.i ], [ %13, %11 ]
  %6 = add i64 %.in.i, -1
  %7 = load ptr, ptr %0, align 8, !tbaa !29
  %8 = icmp ult ptr %7, %4
  br i1 %8, label %11, label %9

9:                                                ; preds = %5
  %10 = tail call ptr @luaL_prepbuffer(ptr noundef nonnull %0)
  %.pre.i = load ptr, ptr %0, align 8, !tbaa !29
  br label %11

11:                                               ; preds = %9, %5
  %12 = phi ptr [ %.pre.i, %9 ], [ %7, %5 ]
  %13 = getelementptr inbounds nuw i8, ptr %.057.i, i64 1
  %14 = load i8, ptr %.057.i, align 1, !tbaa !24
  %15 = getelementptr inbounds nuw i8, ptr %12, i64 1
  store ptr %15, ptr %0, align 8, !tbaa !29
  store i8 %14, ptr %12, align 1, !tbaa !24
  %.not.i = icmp eq i64 %6, 0
  br i1 %.not.i, label %luaL_addlstring.exit, label %5, !llvm.loop !32

luaL_addlstring.exit:                             ; preds = %11, %2
  ret void
}